target datalayout = "e-m:e-p270:32:32-p271:32:32-p272:64:64-i64:64-i128:128-f80:128-n8:16:32:64-S128"
target triple = "x86_64-pc-linux-gnu"

%struct._zend_executor_globals = type { %struct._zval_struct, %struct._zval_struct, [32 x ptr], ptr, ptr, %struct._zend_array, %struct._zend_array, ptr, i32, i8, %struct._zval_struct, i32, ptr, ptr, ptr, ptr, ptr, ptr, i64, ptr, ptr, i32, ptr, i32, i64, i32, i32, i32, i8, i8, %struct.zend_atomic_bool_s, %struct.zend_atomic_bool_s, ptr, i64, ptr, ptr, %struct._zend_array, %struct._zend_array, i32, i8, %struct._zval_struct, %struct._zval_struct, %struct._zend_stack, %struct._zend_stack, %struct._zend_stack, ptr, i32, i32, i64, ptr, ptr, ptr, %struct._zend_objects_store, %struct._zend_lazy_objects_store, ptr, ptr, ptr, [3 x %struct._zend_op], ptr, i8, i8, i64, i32, i32, ptr, [16 x %struct._HashTableIterator], ptr, %union._zend_function, %struct._zend_op, %struct._zend_array, i64, %struct.zend_get_gc_buffer, ptr, ptr, ptr, i64, i8, i32, ptr, ptr, i64, %struct._zend_call_stack, i64, i64, %struct._zend_strtod_state, [6 x ptr] }
%struct.zend_atomic_bool_s = type { i8 }
%struct._zval_struct = type { %union._zend_value, %union.anon, %union.anon.2 }
%union._zend_value = type { i64 }
%union.anon = type { i32 }
%union.anon.2 = type { i32 }
%struct._zend_stack = type { i32, i32, i32, ptr }
%struct._zend_objects_store = type { ptr, i32, i32, i32 }
%struct._zend_lazy_objects_store = type { %struct._zend_array }
%struct._HashTableIterator = type { ptr, i32, i32 }
%union._zend_function = type { %struct._zend_op_array }
%struct._zend_op_array = type { i8, [3 x i8], i32, ptr, ptr, ptr, i32, i32, ptr, ptr, ptr, ptr, i32, ptr, i32, i32, i32, ptr, ptr, ptr, ptr, ptr, i32, i32, ptr, ptr, ptr, i32, i32, i32, i32, ptr, ptr, [6 x ptr] }
%struct._zend_op = type { ptr, %union._znode_op, %union._znode_op, %union._znode_op, i32, i32, i8, i8, i8, i8 }
%union._znode_op = type { i32 }
%struct._zend_array = type { %struct._zend_refcounted_h, %union.anon.4, i32, %union.anon.6, i32, i32, i32, i32, i64, ptr }
%struct._zend_refcounted_h = type { i32, %union.anon.3 }
%union.anon.3 = type { i32 }
%union.anon.4 = type { i32 }
%union.anon.6 = type { ptr }
%struct.zend_get_gc_buffer = type { ptr, ptr, ptr }
%struct._zend_call_stack = type { ptr, i64 }
%struct._zend_strtod_state = type { [8 x ptr], ptr, ptr }
%struct._zend_string = type { %struct._zend_refcounted_h, i64, i64, [1 x i8] }

@executor_globals = external global %struct._zend_executor_globals, align 8
@.str.14 = private unnamed_addr constant [45 x i8] c"must be contained in argument #1 ($haystack)\00", align 1

; Function Attrs: alwaysinline nounwind uwtable
define internal ptr @zend_memnstr(ptr noundef %0, ptr noundef %1, i64 noundef %2, ptr noundef %3) #7 {
  %5 = alloca ptr, align 8
  %6 = alloca ptr, align 8
  %7 = alloca ptr, align 8
  %8 = alloca i64, align 8
  %9 = alloca ptr, align 8
  %10 = alloca ptr, align 8
  %11 = alloca i64, align 8
  %12 = alloca i32, align 4
  %13 = alloca i8, align 1
  store ptr %0, ptr %6, align 8, !tbaa !10
  store ptr %1, ptr %7, align 8, !tbaa !10
  store i64 %2, ptr %8, align 8, !tbaa !31
  store ptr %3, ptr %9, align 8, !tbaa !10
  call void @llvm.lifetime.start.p0(i64 8, ptr %10) #22
  %14 = load ptr, ptr %6, align 8, !tbaa !10
  store ptr %14, ptr %10, align 8, !tbaa !10
  call void @llvm.lifetime.start.p0(i64 8, ptr %11) #22
  %15 = load ptr, ptr %9, align 8, !tbaa !10
  %16 = load ptr, ptr %10, align 8, !tbaa !10
  %17 = icmp uge ptr %15, %16
  call void @llvm.assume(i1 %17)
  %18 = load i64, ptr %8, align 8, !tbaa !31
  %19 = icmp eq i64 %18, 1
  br i1 %19, label %20, label %31

20:                                               ; preds = %4
  %21 = load ptr, ptr %10, align 8, !tbaa !10
  %22 = load ptr, ptr %7, align 8, !tbaa !10
  %23 = load i8, ptr %22, align 1, !tbaa !12
  %24 = sext i8 %23 to i32
  %25 = load ptr, ptr %9, align 8, !tbaa !10
  %26 = load ptr, ptr %10, align 8, !tbaa !10
  %27 = ptrtoint ptr %25 to i64
  %28 = ptrtoint ptr %26 to i64
  %29 = sub i64 %27, %28
  %30 = call ptr @memchr(ptr noundef %21, i32 noundef %24, i64 noundef %29) #23
  store ptr %30, ptr %5, align 8
  store i32 1, ptr %12, align 4
  br label %128

31:                                               ; preds = %4
  %32 = load i64, ptr %8, align 8, !tbaa !31
  %33 = icmp eq i64 %32, 0
  %34 = xor i1 %33, true
  %35 = xor i1 %34, true
  %36 = zext i1 %35 to i32
  %37 = sext i32 %36 to i64
  %38 = call i64 @llvm.expect.i64(i64 %37, i64 0)
  %39 = icmp ne i64 %38, 0
  br i1 %39, label %40, label %42

40:                                               ; preds = %31
  %41 = load ptr, ptr %10, align 8, !tbaa !10
  store ptr %41, ptr %5, align 8
  store i32 1, ptr %12, align 4
  br label %128

42:                                               ; preds = %31
  br label %43

43:                                               ; preds = %42
  %44 = load ptr, ptr %9, align 8, !tbaa !10
  %45 = load ptr, ptr %10, align 8, !tbaa !10
  %46 = ptrtoint ptr %44 to i64
  %47 = ptrtoint ptr %45 to i64
  %48 = sub i64 %46, %47
  store i64 %48, ptr %11, align 8, !tbaa !31
  %49 = load i64, ptr %8, align 8, !tbaa !31
  %50 = load i64, ptr %11, align 8, !tbaa !31
  %51 = icmp ugt i64 %49, %50
  br i1 %51, label %52, label %53

52:                                               ; preds = %43
  store ptr null, ptr %5, align 8
  store i32 1, ptr %12, align 4
  br label %128

53:                                               ; preds = %43
  %54 = load i64, ptr %11, align 8, !tbaa !31
  %55 = icmp ult i64 %54, 1024
  br i1 %55, label %59, label %56

56:                                               ; preds = %53
  %57 = load i64, ptr %8, align 8, !tbaa !31
  %58 = icmp ult i64 %57, 9
  br label %59

59:                                               ; preds = %56, %53
  %60 = phi i1 [ true, %53 ], [ %58, %56 ]
  %61 = xor i1 %60, true
  %62 = xor i1 %61, true
  %63 = zext i1 %62 to i32
  %64 = sext i32 %63 to i64
  %65 = call i64 @llvm.expect.i64(i64 %64, i64 1)
  %66 = icmp ne i64 %65, 0
  br i1 %66, label %67, label %122

67:                                               ; preds = %59
  call void @llvm.lifetime.start.p0(i64 1, ptr %13) #22
  %68 = load ptr, ptr %7, align 8, !tbaa !10
  %69 = load i64, ptr %8, align 8, !tbaa !31
  %70 = sub i64 %69, 1
  %71 = getelementptr inbounds nuw i8, ptr %68, i64 %70
  %72 = load i8, ptr %71, align 1, !tbaa !12
  store i8 %72, ptr %13, align 1, !tbaa !12
  %73 = load i64, ptr %8, align 8, !tbaa !31
  %74 = load ptr, ptr %9, align 8, !tbaa !10
  %75 = sub i64 0, %73
  %76 = getelementptr inbounds i8, ptr %74, i64 %75
  store ptr %76, ptr %9, align 8, !tbaa !10
  br label %77

77:                                               ; preds = %117, %67
  %78 = load ptr, ptr %10, align 8, !tbaa !10
  %79 = load ptr, ptr %9, align 8, !tbaa !10
  %80 = icmp ule ptr %78, %79
  br i1 %80, label %81, label %120

81:                                               ; preds = %77
  %82 = load ptr, ptr %10, align 8, !tbaa !10
  %83 = load ptr, ptr %7, align 8, !tbaa !10
  %84 = load i8, ptr %83, align 1, !tbaa !12
  %85 = sext i8 %84 to i32
  %86 = load ptr, ptr %9, align 8, !tbaa !10
  %87 = load ptr, ptr %10, align 8, !tbaa !10
  %88 = ptrtoint ptr %86 to i64
  %89 = ptrtoint ptr %87 to i64
  %90 = sub i64 %88, %89
  %91 = add nsw i64 %90, 1
  %92 = call ptr @memchr(ptr noundef %82, i32 noundef %85, i64 noundef %91) #23
  store ptr %92, ptr %10, align 8, !tbaa !10
  %93 = icmp ne ptr %92, null
  br i1 %93, label %94, label %116

94:                                               ; preds = %81
  %95 = load i8, ptr %13, align 1, !tbaa !12
  %96 = sext i8 %95 to i32
  %97 = load ptr, ptr %10, align 8, !tbaa !10
  %98 = load i64, ptr %8, align 8, !tbaa !31
  %99 = sub i64 %98, 1
  %100 = getelementptr inbounds nuw i8, ptr %97, i64 %99
  %101 = load i8, ptr %100, align 1, !tbaa !12
  %102 = sext i8 %101 to i32
  %103 = icmp eq i32 %96, %102
  br i1 %103, label %104, label %115

104:                                              ; preds = %94
  %105 = load ptr, ptr %7, align 8, !tbaa !10
  %106 = getelementptr inbounds i8, ptr %105, i64 1
  %107 = load ptr, ptr %10, align 8, !tbaa !10
  %108 = getelementptr inbounds i8, ptr %107, i64 1
  %109 = load i64, ptr %8, align 8, !tbaa !31
  %110 = sub i64 %109, 2
  %111 = call i32 @memcmp(ptr noundef %106, ptr noundef %108, i64 noundef %110) #23
  %112 = icmp ne i32 %111, 0
  br i1 %112, label %115, label %113

113:                                              ; preds = %104
  %114 = load ptr, ptr %10, align 8, !tbaa !10
  store ptr %114, ptr %5, align 8
  store i32 1, ptr %12, align 4
  br label %121

115:                                              ; preds = %104, %94
  br label %117

116:                                              ; preds = %81
  store ptr null, ptr %5, align 8
  store i32 1, ptr %12, align 4
  br label %121

117:                                              ; preds = %115
  %118 = load ptr, ptr %10, align 8, !tbaa !10
  %119 = getelementptr inbounds nuw i8, ptr %118, i32 1
  store ptr %119, ptr %10, align 8, !tbaa !10
  br label %77

120:                                              ; preds = %77
  store ptr null, ptr %5, align 8
  store i32 1, ptr %12, align 4
  br label %121

121:                                              ; preds = %120, %116, %113
  call void @llvm.lifetime.end.p0(i64 1, ptr %13) #22
  br label %128

122:                                              ; preds = %59
  %123 = load ptr, ptr %6, align 8, !tbaa !10
  %124 = load ptr, ptr %7, align 8, !tbaa !10
  %125 = load i64, ptr %8, align 8, !tbaa !31
  %126 = load ptr, ptr %9, align 8, !tbaa !10
  %127 = call ptr @zend_memnstr_ex(ptr noundef %123, ptr noundef %124, i64 noundef %125, ptr noundef %126)
  store ptr %127, ptr %5, align 8
  store i32 1, ptr %12, align 4
  br label %128

128:                                              ; preds = %122, %121, %52, %40, %20
  call void @llvm.lifetime.end.p0(i64 8, ptr %11) #22
  call void @llvm.lifetime.end.p0(i64 8, ptr %10) #22
  %129 = load ptr, ptr %5, align 8
  ret ptr %129
}

; Function Attrs: inlinehint nounwind uwtable
define internal void @_zend_strpos(ptr noundef %0, ptr noundef %1, ptr noundef %2, i64 noundef %3) #12 {
  %5 = alloca ptr, align 8
  %6 = alloca ptr, align 8
  %7 = alloca ptr, align 8
  %8 = alloca i64, align 8
  %9 = alloca ptr, align 8
  %10 = alloca i32, align 4
  %11 = alloca ptr, align 8
  store ptr %0, ptr %5, align 8, !tbaa !15
  store ptr %1, ptr %6, align 8, !tbaa !23
  store ptr %2, ptr %7, align 8, !tbaa !23
  store i64 %3, ptr %8, align 8, !tbaa !31
  call void @llvm.lifetime.start.p0(i64 8, ptr %9) #22
  store ptr null, ptr %9, align 8, !tbaa !10
  %12 = load i64, ptr %8, align 8, !tbaa !31
  %13 = icmp slt i64 %12, 0
  br i1 %13, label %14, label %20

14:                                               ; preds = %4
  %15 = load ptr, ptr %6, align 8, !tbaa !23
  %16 = getelementptr inbounds nuw %struct._zend_string, ptr %15, i32 0, i32 2
  %17 = load i64, ptr %16, align 8, !tbaa !25
  %18 = load i64, ptr %8, align 8, !tbaa !31
  %19 = add nsw i64 %18, %17
  store i64 %19, ptr %8, align 8, !tbaa !31
  br label %20

20:                                               ; preds = %14, %4
  %21 = load i64, ptr %8, align 8, !tbaa !31
  %22 = icmp slt i64 %21, 0
  br i1 %22, label %29, label %23

23:                                               ; preds = %20
  %24 = load i64, ptr %8, align 8, !tbaa !31
  %25 = load ptr, ptr %6, align 8, !tbaa !23
  %26 = getelementptr inbounds nuw %struct._zend_string, ptr %25, i32 0, i32 2
  %27 = load i64, ptr %26, align 8, !tbaa !25
  %28 = icmp ugt i64 %24, %27
  br i1 %28, label %29, label %35

29:                                               ; preds = %23, %20
  call void (i32, ptr, ...) @zend_argument_value_error(i32 noundef 3, ptr noundef @.str.14)
  br label %30

30:                                               ; preds = %29
  %31 = load ptr, ptr getelementptr inbounds nuw (%struct._zend_executor_globals, ptr @executor_globals, i32 0, i32 54), align 8, !tbaa !41
  %32 = icmp ne ptr %31, null
  call void @llvm.assume(i1 %32)
  store i32 1, ptr %10, align 4
  br label %92

33:                                               ; No predecessors!
  br label %34

34:                                               ; preds = %33
  br label %35

35:                                               ; preds = %34, %23
  %36 = load ptr, ptr %6, align 8, !tbaa !23
  %37 = getelementptr inbounds nuw %struct._zend_string, ptr %36, i32 0, i32 3
  %38 = getelementptr inbounds [1 x i8], ptr %37, i64 0, i64 0
  %39 = load i64, ptr %8, align 8, !tbaa !31
  %40 = getelementptr inbounds i8, ptr %38, i64 %39
  %41 = load ptr, ptr %7, align 8, !tbaa !23
  %42 = getelementptr inbounds nuw %struct._zend_string, ptr %41, i32 0, i32 3
  %43 = getelementptr inbounds [1 x i8], ptr %42, i64 0, i64 0
  %44 = load ptr, ptr %7, align 8, !tbaa !23
  %45 = getelementptr inbounds nuw %struct._zend_string, ptr %44, i32 0, i32 2
  %46 = load i64, ptr %45, align 8, !tbaa !25
  %47 = load ptr, ptr %6, align 8, !tbaa !23
  %48 = getelementptr inbounds nuw %struct._zend_string, ptr %47, i32 0, i32 3
  %49 = getelementptr inbounds [1 x i8], ptr %48, i64 0, i64 0
  %50 = load ptr, ptr %6, align 8, !tbaa !23
  %51 = getelementptr inbounds nuw %struct._zend_string, ptr %50, i32 0, i32 2
  %52 = load i64, ptr %51, align 8, !tbaa !25
  %53 = getelementptr inbounds nuw i8, ptr %49, i64 %52
  %54 = call ptr @zend_memnstr(ptr noundef %40, ptr noundef %43, i64 noundef %46, ptr noundef %53)
  store ptr %54, ptr %9, align 8, !tbaa !10
  %55 = load ptr, ptr %9, align 8, !tbaa !10
  %56 = icmp ne ptr %55, null
  %57 = xor i1 %56, true
  %58 = xor i1 %57, true
  %59 = xor i1 %58, true
  %60 = zext i1 %59 to i32
  %61 = sext i32 %60 to i64
  %62 = call i64 @llvm.expect.i64(i64 %61, i64 0)
  %63 = icmp ne i64 %62, 0
  br i1 %63, label %64, label %73

64:                                               ; preds = %35
  br label %65

65:                                               ; preds = %64
  br label %66

66:                                               ; preds = %65
  %67 = load ptr, ptr %5, align 8, !tbaa !15
  %68 = getelementptr inbounds nuw %struct._zval_struct, ptr %67, i32 0, i32 1
  store i32 2, ptr %68, align 8, !tbaa !12
  br label %69

69:                                               ; preds = %66
  br label %70

70:                                               ; preds = %69
  store i32 1, ptr %10, align 4
  br label %92

71:                                               ; No predecessors!
  br label %72

72:                                               ; preds = %71
  br label %73

73:                                               ; preds = %72, %35
  br label %74

74:                                               ; preds = %73
  br label %75

75:                                               ; preds = %74
  call void @llvm.lifetime.start.p0(i64 8, ptr %11) #22
  %76 = load ptr, ptr %5, align 8, !tbaa !15
  store ptr %76, ptr %11, align 8, !tbaa !15
  %77 = load ptr, ptr %9, align 8, !tbaa !10
  %78 = load ptr, ptr %6, align 8, !tbaa !23
  %79 = getelementptr inbounds nuw %struct._zend_string, ptr %78, i32 0, i32 3
  %80 = getelementptr inbounds [1 x i8], ptr %79, i64 0, i64 0
  %81 = ptrtoint ptr %77 to i64
  %82 = ptrtoint ptr %80 to i64
  %83 = sub i64 %81, %82
  %84 = load ptr, ptr %11, align 8, !tbaa !15
  %85 = getelementptr inbounds nuw %struct._zval_struct, ptr %84, i32 0, i32 0
  store i64 %83, ptr %85, align 8, !tbaa !12
  %86 = load ptr, ptr %11, align 8, !tbaa !15
  %87 = getelementptr inbounds nuw %struct._zval_struct, ptr %86, i32 0, i32 1
  store i32 4, ptr %87, align 8, !tbaa !12
  call void @llvm.lifetime.end.p0(i64 8, ptr %11) #22
  br label %88

88:                                               ; preds = %75
  br label %89

89:                                               ; preds = %88
  store i32 1, ptr %10, align 4
  br label %92

90:                                               ; No predecessors!
  br label %91

91:                                               ; preds = %90
  store i32 0, ptr %10, align 4
  br label %92

92:                                               ; preds = %91, %89, %70, %30
  call void @llvm.lifetime.end.p0(i64 8, ptr %9) #22
  %93 = load i32, ptr %10, align 4
  switch i32 %93, label %95 [
    i32 0, label %94
    i32 1, label %94
  ]

94:                                               ; preds = %92, %92
  ret void

95:                                               ; preds = %92
  unreachable
}