; Function Attrs: inlinehint nounwind uwtable
define internal fastcc void @_zend_strpos(ptr noundef writeonly captures(none) %0, ptr noundef %1, ptr noundef %2, i64 noundef %3) unnamed_addr #12 {
  %5 = icmp slt i64 %3, 0
  %6 = getelementptr inbounds nuw i8, ptr %1, i64 16
  %7 = load i64, ptr %6, align 8, !tbaa !16
  br i1 %5, label %8, label %.thread

8:                                                ; preds = %4
  %9 = add nsw i64 %7, %3
  %10 = icmp slt i64 %9, 0
  br i1 %10, label %12, label %.thread

.thread:                                          ; preds = %4, %8
  %.021 = phi i64 [ %9, %8 ], [ %3, %4 ]
  %11 = icmp ugt i64 %.021, %7
  br i1 %11, label %12, label %15

12:                                               ; preds = %.thread, %8
  tail call void (i32, ptr, ...) @zend_argument_value_error(i32 noundef 3, ptr noundef nonnull @.str.14) #28
  %13 = load ptr, ptr getelementptr inbounds nuw (i8, ptr @executor_globals, i64 960), align 8, !tbaa !35
  %14 = icmp ne ptr %13, null
  tail call void @llvm.assume(i1 %14)
  br label %63

15:                                               ; preds = %.thread
  %16 = getelementptr inbounds nuw i8, ptr %1, i64 24
  %17 = getelementptr inbounds nuw i8, ptr %16, i64 %.021
  %18 = getelementptr inbounds nuw i8, ptr %2, i64 24
  %19 = getelementptr inbounds nuw i8, ptr %2, i64 16
  %20 = load i64, ptr %19, align 8, !tbaa !16
  %21 = getelementptr inbounds nuw i8, ptr %16, i64 %7
  switch i64 %20, label %26 [
    i64 1, label %22
    i64 0, label %zend_memnstr.exit.thread25
  ], !prof !64

22:                                               ; preds = %15
  %23 = load i8, ptr %18, align 1, !tbaa !10
  %24 = sext i8 %23 to i32
  %gepdiff = sub nsw i64 %7, %.021
  %25 = tail call ptr @memchr(ptr noundef nonnull %17, i32 noundef %24, i64 noundef %gepdiff) #30
  br label %zend_memnstr.exit

26:                                               ; preds = %15
  %gepdiff29 = sub nsw i64 %7, %.021
  %27 = icmp ugt i64 %20, %gepdiff29
  br i1 %27, label %zend_memnstr.exit.thread, label %28

28:                                               ; preds = %26
  %29 = icmp ult i64 %gepdiff29, 1024
  %30 = icmp ult i64 %20, 9
  %31 = or i1 %29, %30
  br i1 %31, label %32, label %56, !prof !12

32:                                               ; preds = %28
  %33 = add i64 %20, -1
  %34 = getelementptr inbounds nuw i8, ptr %18, i64 %33
  %35 = load i8, ptr %34, align 1, !tbaa !10
  %36 = sub i64 0, %20
  %37 = getelementptr inbounds i8, ptr %21, i64 %36
  %.not.i30 = icmp ugt ptr %17, %37
  br i1 %.not.i30, label %zend_memnstr.exit.thread, label %.lr.ph

.lr.ph:                                           ; preds = %32
  %38 = load i8, ptr %18, align 1, !tbaa !10
  %39 = sext i8 %38 to i32
  %40 = ptrtoint ptr %37 to i64
  %41 = add i64 %40, 1
  %42 = getelementptr inbounds nuw i8, ptr %2, i64 25
  %43 = add i64 %20, -2
  br label %44

44:                                               ; preds = %.lr.ph, %54
  %.038.i31 = phi ptr [ %17, %.lr.ph ], [ %55, %54 ]
  %45 = ptrtoint ptr %.038.i31 to i64
  %46 = sub i64 %41, %45
  %47 = tail call ptr @memchr(ptr noundef nonnull %.038.i31, i32 noundef %39, i64 noundef %46) #30
  %.not43.i = icmp eq ptr %47, null
  br i1 %.not43.i, label %zend_memnstr.exit.thread, label %48

48:                                               ; preds = %44
  %49 = getelementptr inbounds nuw i8, ptr %47, i64 %33
  %50 = load i8, ptr %49, align 1, !tbaa !10
  %51 = icmp eq i8 %35, %50
  br i1 %51, label %52, label %54

52:                                               ; preds = %48
  %53 = getelementptr inbounds nuw i8, ptr %47, i64 1
  %bcmp.i = tail call i32 @bcmp(ptr nonnull %42, ptr nonnull %53, i64 %43)
  %.not44.i = icmp eq i32 %bcmp.i, 0
  br i1 %.not44.i, label %zend_memnstr.exit.thread25, label %54

54:                                               ; preds = %52, %48
  %55 = getelementptr inbounds nuw i8, ptr %47, i64 1
  %.not.i = icmp ugt ptr %55, %37
  br i1 %.not.i, label %zend_memnstr.exit.thread, label %44

56:                                               ; preds = %28
  %57 = tail call ptr @zend_memnstr_ex(ptr noundef nonnull %17, ptr noundef nonnull %18, i64 noundef %20, ptr noundef nonnull %21) #28
  br label %zend_memnstr.exit

zend_memnstr.exit:                                ; preds = %22, %56
  %.0.i = phi ptr [ %25, %22 ], [ %57, %56 ]
  %.not = icmp eq ptr %.0.i, null
  br i1 %.not, label %zend_memnstr.exit.thread, label %zend_memnstr.exit.thread25, !prof !15

zend_memnstr.exit.thread:                         ; preds = %44, %54, %32, %26, %zend_memnstr.exit
  %58 = getelementptr inbounds nuw i8, ptr %0, i64 8
  store i32 2, ptr %58, align 8, !tbaa !10
  br label %63

zend_memnstr.exit.thread25:                       ; preds = %52, %15, %zend_memnstr.exit
  %.0.i28 = phi ptr [ %.0.i, %zend_memnstr.exit ], [ %17, %15 ], [ %47, %52 ]
  %59 = ptrtoint ptr %.0.i28 to i64
  %60 = ptrtoint ptr %16 to i64
  %61 = sub i64 %59, %60
  store i64 %61, ptr %0, align 8, !tbaa !10
  %62 = getelementptr inbounds nuw i8, ptr %0, i64 8
  store i32 4, ptr %62, align 8, !tbaa !10
  br label %63

63:                                               ; preds = %zend_memnstr.exit.thread25, %zend_memnstr.exit.thread, %12
  ret void
}